Certificate:
    Data:
        Version: 3 (0x2)
        Serial Number: 2 (0x2)
    Signature Algorithm: sha256WithRSAEncryption
        Issuer: C=BE, ST=CA, L=SanFrancisco, O=Fort-Funston, OU=MyOrganizationalUnit, CN=Fort-Funston CA/name=EasyRSA/emailAddress=me@myhost.mydomain
        Validity
            Not Before: Mar 18 15:42:04 2014 GMT
            Not After : Mar 15 15:42:04 2024 GMT
        Subject: C=BE, ST=CA, L=SanFrancisco, O=Fort-Funston, OU=MyOrganizationalUnit, CN=client/name=EasyRSA/emailAddress=me@myhost.mydomain
        Subject Public Key Info:
            Public Key Algorithm: rsaEncryption
                Public-Key: (2048 bit)
                Modulus:
                    00:ec:c8:25:10:97:9b:e9:bd:03:35:22:f3:1b:0a:
                    da:d4:74:c8:8e:75:5f:56:5e:4c:24:1d:fc:a1:ae:
                    1e:3a:bf:33:59:0f:f0:77:62:3a:59:7a:17:10:cc:
                    da:28:0c:82:0f:51:64:f5:ef:9c:9c:ea:76:dd:53:
                    60:2d:b3:d2:cd:4e:66:b6:60:3b:41:54:d4:63:fc:
                    d4:c9:30:1a:82:76:9b:8f:6e:d6:01:3e:71:ff:e3:
                    69:2d:2f:40:b5:10:f0:ab:ae:6b:e1:c5:f0:2e:34:
                    7b:59:fd:38:4e:81:35:43:93:c9:3f:25:3b:f2:9d:
                    9e:d1:1e:a5:5c:04:3a:12:06:36:32:05:a5:48:7d:
                    ae:6f:48:6f:e7:4f:0b:ad:d0:21:91:d7:27:15:2e:
                    93:fd:c1:32:62:57:d9:dd:56:7d:18:05:10:28:ea:
                    6d:09:a2:34:37:62:68:47:8c:49:f0:b9:9d:d2:e8:
                    d6:08:38:2b:56:6b:ae:70:a0:83:ff:67:4e:a7:77:
                    46:a8:2f:a6:21:8a:a6:db:2f:f0:6c:94:18:76:5a:
                    a9:52:3f:f1:be:46:78:ca:a9:3c:0e:25:76:3d:dd:
                    f1:15:66:92:14:f2:ec:45:f7:62:d0:7a:c0:d8:a3:
                    59:2f:60:49:f5:d4:15:ce:93:43:f0:bb:b5:9b:03:
                    99:91
                Exponent: 65537 (0x10001)
        X509v3 extensions:
            X509v3 Basic Constraints: 
                CA:FALSE
            Netscape Comment: 
                Easy-RSA Generated Certificate
            X509v3 Subject Key Identifier: 
                08:D9:E0:94:0F:57:E6:86:E3:0D:FD:4A:92:BF:BD:49:15:F5:A7:EF
            X509v3 Authority Key Identifier: 
                keyid:41:01:F4:B5:63:38:E0:35:E3:27:F3:97:A6:F3:A9:2B:D3:CF:70:21
                DirName:/C=BE/ST=CA/L=SanFrancisco/O=Fort-Funston/OU=MyOrganizationalUnit/CN=Fort-Funston CA/name=EasyRSA/emailAddress=me@myhost.mydomain
                serial:D3:2B:A5:35:3A:6A:4F:93

            X509v3 Extended Key Usage: 
                TLS Web Client Authentication
            X509v3 Key Usage: 
                Digital Signature
    Signature Algorithm: sha256WithRSAEncryption
         54:10:b1:03:b6:a2:55:c5:8c:42:35:4d:21:69:6b:c2:2d:93:
         3b:ef:f0:ab:70:a9:44:f1:26:f6:fb:b2:33:0b:24:ee:75:ce:
         56:b6:3c:6c:65:f3:3a:74:18:7a:95:80:0f:d3:47:b2:d4:77:
         00:49:1a:0d:8e:97:64:70:34:2b:92:32:02:1c:a7:57:fd:74:
         71:59:f8:57:59:7a:d6:1d:bb:ae:82:5f:e6:84:dd:10:77:1f:
         d4:a3:19:a1:86:1c:52:58:e6:f7:c2:15:db:01:65:fe:ca:40:
         c8:a7:ce:db:c6:b5:2f:c3:ab:91:a7:0e:28:4d:f4:8a:2f:70:
         76:4c:73:4e:30:ef:91:07:52:65:3f:6a:15:b1:43:cc:9c:e9:
         2c:f7:7e:97:e3:44:7d:7f:64:e5:ce:b9:32:a6:bb:32:16:3e:
         df:2b:69:0b:96:3a:58:49:88:fc:9f:44:8b:07:58:79:8e:ce:
         af:4f:72:d9:80:ec:ea:1c:5e:91:56:ef:64:7d:49:b7:8d:77:
         47:06:40:07:c1:9c:56:a2:2e:27:2a:8b:cc:db:6e:e0:69:d7:
         50:54:fd:ba:4e:5c:89:f6:74:a5:19:67:9e:43:31:2e:7d:fa:
         d5:90:0c:71:2e:4d:23:3f:fa:67:a1:42:4c:2c:51:c9:b4:45:
         4d:4f:fa:9f
-----BEGIN CERTIFICATE-----
MIIFTzCCBDegAwIBAgIBAjANBgkqhkiG9w0BAQsFADCBtjELMAkGA1UEBhMCQkUx
CzAJBgNVBAgTAkNBMRUwEwYDVQQHEwxTYW5GcmFuY2lzY28xFTATBgNVBAoTDEZv
cnQtRnVuc3RvbjEdMBsGA1UECxMUTXlPcmdhbml6YXRpb25hbFVuaXQxGDAWBgNV
BAMTD0ZvcnQtRnVuc3RvbiBDQTEQMA4GA1UEKRMHRWFzeVJTQTEhMB8GCSqGSIb3
DQEJARYSbWVAbXlob3N0Lm15ZG9tYWluMB4XDTE0MDMxODE1NDIwNFoXDTI0MDMx
NTE1NDIwNFowga0xCzAJBgNVBAYTAkJFMQswCQYDVQQIEwJDQTEVMBMGA1UEBxMM
U2FuRnJhbmNpc2NvMRUwEwYDVQQKEwxGb3J0LUZ1bnN0b24xHTAbBgNVBAsTFE15
T3JnYW5pemF0aW9uYWxVbml0MQ8wDQYDVQQDEwZjbGllbnQxEDAOBgNVBCkTB0Vh
c3lSU0ExITAfBgkqhkiG9w0BCQEWEm1lQG15aG9zdC5teWRvbWFpbjCCASIwDQYJ
KoZIhvcNAQEBBQADggEPADCCAQoCggEBAOzIJRCXm+m9AzUi8xsK2tR0yI51X1Ze
TCQd/KGuHjq/M1kP8HdiOll6FxDM2igMgg9RZPXvnJzqdt1TYC2z0s1OZrZgO0FU
1GP81MkwGoJ2m49u1gE+cf/jaS0vQLUQ8Kuua+HF8C40e1n9OE6BNUOTyT8lO/Kd
ntEepVwEOhIGNjIFpUh9rm9Ib+dPC63QIZHXJxUuk/3BMmJX2d1WfRgFECjqbQmi
NDdiaEeMSfC5ndLo1gg4K1ZrrnCgg/9nTqd3RqgvpiGKptsv8GyUGHZaqVI/8b5G
eMqpPA4ldj3d8RVmkhTy7EX3YtB6wNijWS9gSfXUFc6TQ/C7tZsDmZECAwEAAaOC
AW0wggFpMAkGA1UdEwQCMAAwLQYJYIZIAYb4QgENBCAWHkVhc3ktUlNBIEdlbmVy
YXRlZCBDZXJ0aWZpY2F0ZTAdBgNVHQ4EFgQUCNnglA9X5objDf1Kkr+9SRX1p+8w
gesGA1UdIwSB4zCB4IAUQQH0tWM44DXjJ/OXpvOpK9PPcCGhgbykgbkwgbYxCzAJ
BgNVBAYTAkJFMQswCQYDVQQIEwJDQTEVMBMGA1UEBxMMU2FuRnJhbmNpc2NvMRUw
EwYDVQQKEwxGb3J0LUZ1bnN0b24xHTAbBgNVBAsTFE15T3JnYW5pemF0aW9uYWxV
bml0MRgwFgYDVQQDEw9Gb3J0LUZ1bnN0b24gQ0ExEDAOBgNVBCkTB0Vhc3lSU0Ex
ITAfBgkqhkiG9w0BCQEWEm1lQG15aG9zdC5teWRvbWFpboIJANMrpTU6ak+TMBMG
A1UdJQQMMAoGCCsGAQUFBwMCMAsGA1UdDwQEAwIHgDANBgkqhkiG9w0BAQsFAAOC
AQEAVBCxA7aiVcWMQjVNIWlrwi2TO+/wq3CpRPEm9vuyMwsk7nXOVrY8bGXzOnQY
epWAD9NHstR3AEkaDY6XZHA0K5IyAhynV/10cVn4V1l61h27roJf5oTdEHcf1KMZ
oYYcUljm98IV2wFl/spAyKfO28a1L8OrkacOKE30ii9wdkxzTjDvkQdSZT9qFbFD
zJzpLPd+l+NEfX9k5c65Mqa7MhY+3ytpC5Y6WEmI/J9EiwdYeY7Or09y2YDs6hxe
kVbvZH1Jt413RwZAB8GcVqIuJyqLzNtu4GnXUFT9uk5cifZ0pRlnnkMxLn361ZAM
cS5NIz/6Z6FCTCxRybRFTU/6nw==
-----END CERTIFICATE-----
